; Function Attrs: mustprogress nofree norecurse nosync nounwind willreturn memory(read, inaccessiblemem: none) uwtable
define dso_local noundef ptr @_ZNK5clang6driver13OffloadAction25getSingleDeviceDependenceEb(ptr nocapture noundef nonnull readonly align 8 dereferenceable(136) %0, i1 noundef zeroext %1) local_unnamed_addr #7 align 2 {
  %3 = getelementptr inbounds nuw i8, ptr %0, i64 88
  %4 = load ptr, ptr %3, align 8
  %.not = icmp eq ptr %4, null
  %5 = getelementptr inbounds nuw i8, ptr %0, i64 16
  %6 = load ptr, ptr %5, align 8
  %.in.idx = select i1 %.not, i64 0, i64 8
  %.in = getelementptr inbounds i8, ptr %6, i64 %.in.idx
  %7 = load ptr, ptr %.in, align 8
  ret ptr %7
}